target datalayout = "e-m:e-p270:32:32-p271:32:32-p272:64:64-i64:64-i128:128-f80:128-n8:16:32:64-S128"
target triple = "x86_64-pc-linux-gnu"

%"class.folly::hash::SpookyHashV1" = type <{ [24 x i64], [12 x i64], i64, i8, [7 x i8] }>

; Function Attrs: mustprogress nounwind uwtable
define void @_ZN5folly4hash12SpookyHashV14InitEmm(ptr noundef nonnull align 8 dereferenceable(297) %0, i64 noundef %1, i64 noundef %2) #6 align 2 {
  %4 = alloca ptr, align 8
  %5 = alloca i64, align 8
  %6 = alloca i64, align 8
  store ptr %0, ptr %4, align 8, !tbaa !21
  store i64 %1, ptr %5, align 8, !tbaa !11
  store i64 %2, ptr %6, align 8, !tbaa !11
  %7 = load ptr, ptr %4, align 8
  %8 = getelementptr inbounds nuw %"class.folly::hash::SpookyHashV1", ptr %7, i32 0, i32 2
  store i64 0, ptr %8, align 8, !tbaa !23
  %9 = getelementptr inbounds nuw %"class.folly::hash::SpookyHashV1", ptr %7, i32 0, i32 3
  store i8 0, ptr %9, align 8, !tbaa !25
  %10 = load i64, ptr %5, align 8, !tbaa !11
  %11 = getelementptr inbounds nuw %"class.folly::hash::SpookyHashV1", ptr %7, i32 0, i32 1
  %12 = getelementptr inbounds [12 x i64], ptr %11, i64 0, i64 0
  store i64 %10, ptr %12, align 8, !tbaa !11
  %13 = load i64, ptr %6, align 8, !tbaa !11
  %14 = getelementptr inbounds nuw %"class.folly::hash::SpookyHashV1", ptr %7, i32 0, i32 1
  %15 = getelementptr inbounds [12 x i64], ptr %14, i64 0, i64 1
  store i64 %13, ptr %15, align 8, !tbaa !11
  ret void
}