; Function Attrs: mustprogress nofree norecurse nosync nounwind willreturn memory(argmem: write) uwtable
define void @_ZN5folly4hash12SpookyHashV14InitEmm(ptr noundef nonnull writeonly align 8 captures(none) dereferenceable(297) initializes((192, 208), (288, 297)) %0, i64 noundef %1, i64 noundef %2) local_unnamed_addr #4 align 2 {
  %4 = getelementptr inbounds nuw i8, ptr %0, i64 288
  store i64 0, ptr %4, align 8, !tbaa !17
  %5 = getelementptr inbounds nuw i8, ptr %0, i64 296
  store i8 0, ptr %5, align 8, !tbaa !19
  %6 = getelementptr inbounds nuw i8, ptr %0, i64 192
  store i64 %1, ptr %6, align 8, !tbaa !7
  %7 = getelementptr inbounds nuw i8, ptr %0, i64 200
  store i64 %2, ptr %7, align 8, !tbaa !7
  ret void
}